target datalayout = "e-m:e-p270:32:32-p271:32:32-p272:64:64-i64:64-i128:128-f80:128-n8:16:32:64-S128"
target triple = "x86_64-unknown-linux-gnu"

%struct.QDictEntry = type { ptr, ptr, %struct.anon }
%struct.anon = type { ptr, ptr }

@.str.2 = private unnamed_addr constant [30 x i8] c"../qemu/qobject/block-qdict.c\00", align 1
@.str.9 = private unnamed_addr constant [51 x i8] c"!subqdict_len || subqdict[subqdict_len - 1] == '.'\00", align 1
@__PRETTY_FUNCTION__.qdict_array_entries = private unnamed_addr constant [47 x i8] c"int qdict_array_entries(QDict *, const char *)\00", align 1
@.str.10 = private unnamed_addr constant [6 x i8] c"%s%u.\00", align 1

; Function Attrs: nounwind sspstrong uwtable
define internal i32 @qdict_count_prefixed_entries(ptr noundef %src, ptr noundef %start) #0 {
entry:
  %retval = alloca i32, align 4
  %src.addr = alloca ptr, align 8
  %start.addr = alloca ptr, align 8
  %entry1 = alloca ptr, align 8
  %count = alloca i32, align 4
  store ptr %src, ptr %src.addr, align 8
  store ptr %start, ptr %start.addr, align 8
  store i32 0, ptr %count, align 4
  %0 = load ptr, ptr %src.addr, align 8
  %call = call ptr @qdict_first(ptr noundef %0)
  store ptr %call, ptr %entry1, align 8
  br label %for.cond

for.cond:                                         ; preds = %for.inc, %entry
  %1 = load ptr, ptr %entry1, align 8
  %tobool = icmp ne ptr %1, null
  br i1 %tobool, label %for.body, label %for.end

for.body:                                         ; preds = %for.cond
  %2 = load ptr, ptr %entry1, align 8
  %key = getelementptr inbounds %struct.QDictEntry, ptr %2, i32 0, i32 0
  %3 = load ptr, ptr %key, align 8
  %4 = load ptr, ptr %start.addr, align 8
  %call2 = call i32 @strstart(ptr noundef %3, ptr noundef %4, ptr noundef null)
  %tobool3 = icmp ne i32 %call2, 0
  br i1 %tobool3, label %if.then, label %if.end5

if.then:                                          ; preds = %for.body
  %5 = load i32, ptr %count, align 4
  %cmp = icmp eq i32 %5, 2147483647
  br i1 %cmp, label %if.then4, label %if.end

if.then4:                                         ; preds = %if.then
  store i32 -34, ptr %retval, align 4
  br label %return

if.end:                                           ; preds = %if.then
  %6 = load i32, ptr %count, align 4
  %inc = add i32 %6, 1
  store i32 %inc, ptr %count, align 4
  br label %if.end5

if.end5:                                          ; preds = %if.end, %for.body
  br label %for.inc

for.inc:                                          ; preds = %if.end5
  %7 = load ptr, ptr %src.addr, align 8
  %8 = load ptr, ptr %entry1, align 8
  %call6 = call ptr @qdict_next(ptr noundef %7, ptr noundef %8)
  store ptr %call6, ptr %entry1, align 8
  br label %for.cond, !llvm.loop !9

for.end:                                          ; preds = %for.cond
  %9 = load i32, ptr %count, align 4
  store i32 %9, ptr %retval, align 4
  br label %return

return:                                           ; preds = %for.end, %if.then4
  %10 = load i32, ptr %retval, align 4
  ret i32 %10
}

; Function Attrs: nounwind sspstrong uwtable
define dso_local i32 @qdict_array_entries(ptr noundef %src, ptr noundef %subqdict) #0 {
entry:
  %retval = alloca i32, align 4
  %src.addr = alloca ptr, align 8
  %subqdict.addr = alloca ptr, align 8
  %entry1 = alloca ptr, align 8
  %i = alloca i32, align 4
  %entries = alloca i32, align 4
  %subqdict_len = alloca i64, align 8
  %subqobj = alloca ptr, align 8
  %subqdict_entries = alloca i32, align 4
  %prefix = alloca ptr, align 8
  store ptr %src, ptr %src.addr, align 8
  store ptr %subqdict, ptr %subqdict.addr, align 8
  store i32 0, ptr %entries, align 4
  %0 = load ptr, ptr %subqdict.addr, align 8
  %call = call i64 @strlen(ptr noundef %0) #7
  store i64 %call, ptr %subqdict_len, align 8
  %1 = load i64, ptr %subqdict_len, align 8
  %tobool = icmp ne i64 %1, 0
  br i1 %tobool, label %lor.lhs.false, label %if.then

lor.lhs.false:                                    ; preds = %entry
  %2 = load ptr, ptr %subqdict.addr, align 8
  %3 = load i64, ptr %subqdict_len, align 8
  %sub = sub i64 %3, 1
  %arrayidx = getelementptr i8, ptr %2, i64 %sub
  %4 = load i8, ptr %arrayidx, align 1
  %conv = sext i8 %4 to i32
  %cmp = icmp eq i32 %conv, 46
  br i1 %cmp, label %if.then, label %if.else

if.then:                                          ; preds = %lor.lhs.false, %entry
  br label %if.end

if.else:                                          ; preds = %lor.lhs.false
  call void @__assert_fail(ptr noundef @.str.9, ptr noundef @.str.2, i32 noundef 603, ptr noundef @__PRETTY_FUNCTION__.qdict_array_entries) #6
  unreachable

if.end:                                           ; preds = %if.then
  store i32 0, ptr %i, align 4
  br label %for.cond

for.cond:                                         ; preds = %for.inc, %if.end
  %5 = load i32, ptr %i, align 4
  %cmp3 = icmp ult i32 %5, 2147483647
  br i1 %cmp3, label %for.body, label %for.end

for.body:                                         ; preds = %for.cond
  %6 = load ptr, ptr %subqdict.addr, align 8
  %7 = load i32, ptr %i, align 4
  %call5 = call noalias ptr (ptr, ...) @g_strdup_printf(ptr noundef @.str.10, ptr noundef %6, i32 noundef %7)
  store ptr %call5, ptr %prefix, align 8
  %8 = load ptr, ptr %src.addr, align 8
  %9 = load ptr, ptr %prefix, align 8
  %call6 = call i32 @qdict_count_prefixed_entries(ptr noundef %8, ptr noundef %9)
  store i32 %call6, ptr %subqdict_entries, align 4
  %10 = load ptr, ptr %prefix, align 8
  %11 = load ptr, ptr %prefix, align 8
  %call7 = call i64 @strlen(ptr noundef %11) #7
  %sub8 = sub i64 %call7, 1
  %arrayidx9 = getelementptr i8, ptr %10, i64 %sub8
  store i8 0, ptr %arrayidx9, align 1
  %12 = load ptr, ptr %src.addr, align 8
  %13 = load ptr, ptr %prefix, align 8
  %call10 = call ptr @qdict_get(ptr noundef %12, ptr noundef %13)
  store ptr %call10, ptr %subqobj, align 8
  %14 = load ptr, ptr %prefix, align 8
  call void @g_free(ptr noundef %14)
  %15 = load i32, ptr %subqdict_entries, align 4
  %cmp11 = icmp slt i32 %15, 0
  br i1 %cmp11, label %if.then13, label %if.end14

if.then13:                                        ; preds = %for.body
  %16 = load i32, ptr %subqdict_entries, align 4
  store i32 %16, ptr %retval, align 4
  br label %return

if.end14:                                         ; preds = %for.body
  %17 = load ptr, ptr %subqobj, align 8
  %tobool15 = icmp ne ptr %17, null
  br i1 %tobool15, label %land.lhs.true, label %if.else18

land.lhs.true:                                    ; preds = %if.end14
  %18 = load i32, ptr %subqdict_entries, align 4
  %tobool16 = icmp ne i32 %18, 0
  br i1 %tobool16, label %if.then17, label %if.else18

if.then17:                                        ; preds = %land.lhs.true
  store i32 -22, ptr %retval, align 4
  br label %return

if.else18:                                        ; preds = %land.lhs.true, %if.end14
  %19 = load ptr, ptr %subqobj, align 8
  %tobool19 = icmp ne ptr %19, null
  br i1 %tobool19, label %if.end23, label %land.lhs.true20

land.lhs.true20:                                  ; preds = %if.else18
  %20 = load i32, ptr %subqdict_entries, align 4
  %tobool21 = icmp ne i32 %20, 0
  br i1 %tobool21, label %if.end23, label %if.then22

if.then22:                                        ; preds = %land.lhs.true20
  br label %for.end

if.end23:                                         ; preds = %land.lhs.true20, %if.else18
  br label %if.end24

if.end24:                                         ; preds = %if.end23
  %21 = load i32, ptr %subqdict_entries, align 4
  %tobool25 = icmp ne i32 %21, 0
  br i1 %tobool25, label %cond.true, label %cond.false

cond.true:                                        ; preds = %if.end24
  %22 = load i32, ptr %subqdict_entries, align 4
  br label %cond.end

cond.false:                                       ; preds = %if.end24
  br label %cond.end

cond.end:                                         ; preds = %cond.false, %cond.true
  %cond = phi i32 [ %22, %cond.true ], [ 1, %cond.false ]
  %23 = load i32, ptr %entries, align 4
  %add = add i32 %23, %cond
  store i32 %add, ptr %entries, align 4
  br label %for.inc

for.inc:                                          ; preds = %cond.end
  %24 = load i32, ptr %i, align 4
  %inc = add i32 %24, 1
  store i32 %inc, ptr %i, align 4
  br label %for.cond, !llvm.loop !16

for.end:                                          ; preds = %if.then22, %for.cond
  %25 = load ptr, ptr %src.addr, align 8
  %call26 = call ptr @qdict_first(ptr noundef %25)
  store ptr %call26, ptr %entry1, align 8
  br label %for.cond27

for.cond27:                                       ; preds = %for.inc36, %for.end
  %26 = load ptr, ptr %entry1, align 8
  %tobool28 = icmp ne ptr %26, null
  br i1 %tobool28, label %for.body29, label %for.end38

for.body29:                                       ; preds = %for.cond27
  %27 = load ptr, ptr %entry1, align 8
  %call30 = call ptr @qdict_entry_key(ptr noundef %27)
  %28 = load ptr, ptr %subqdict.addr, align 8
  %call31 = call i32 @strstart(ptr noundef %call30, ptr noundef %28, ptr noundef null)
  %tobool32 = icmp ne i32 %call31, 0
  br i1 %tobool32, label %if.end35, label %if.then33

if.then33:                                        ; preds = %for.body29
  %29 = load i32, ptr %entries, align 4
  %inc34 = add i32 %29, 1
  store i32 %inc34, ptr %entries, align 4
  br label %if.end35

if.end35:                                         ; preds = %if.then33, %for.body29
  br label %for.inc36

for.inc36:                                        ; preds = %if.end35
  %30 = load ptr, ptr %src.addr, align 8
  %31 = load ptr, ptr %entry1, align 8
  %call37 = call ptr @qdict_next(ptr noundef %30, ptr noundef %31)
  store ptr %call37, ptr %entry1, align 8
  br label %for.cond27, !llvm.loop !17

for.end38:                                        ; preds = %for.cond27
  %32 = load ptr, ptr %src.addr, align 8
  %call39 = call i64 @qdict_size(ptr noundef %32)
  %33 = load i32, ptr %entries, align 4
  %conv40 = zext i32 %33 to i64
  %cmp41 = icmp ne i64 %call39, %conv40
  br i1 %cmp41, label %if.then43, label %if.end44

if.then43:                                        ; preds = %for.end38
  store i32 -22, ptr %retval, align 4
  br label %return

if.end44:                                         ; preds = %for.end38
  %34 = load i32, ptr %i, align 4
  store i32 %34, ptr %retval, align 4
  br label %return

return:                                           ; preds = %if.end44, %if.then43, %if.then17, %if.then13
  %35 = load i32, ptr %retval, align 4
  ret i32 %35
}