; Function Attrs: nounwind sspstrong uwtable
define dso_local i32 @qdict_array_entries(ptr noundef %src, ptr noundef %subqdict) local_unnamed_addr #0 {
entry:
  %call = tail call i64 @strlen(ptr noundef nonnull dereferenceable(1) %subqdict) #9
  %tobool.not = icmp eq i64 %call, 0
  br i1 %tobool.not, label %for.body.preheader, label %lor.lhs.false

lor.lhs.false:                                    ; preds = %entry
  %0 = getelementptr i8, ptr %subqdict, i64 %call
  %arrayidx = getelementptr i8, ptr %0, i64 -1
  %1 = load i8, ptr %arrayidx, align 1
  %cmp = icmp eq i8 %1, 46
  br i1 %cmp, label %for.body.preheader, label %if.else

for.body.preheader:                               ; preds = %entry, %lor.lhs.false
  br label %for.body

if.else:                                          ; preds = %lor.lhs.false
  tail call void @__assert_fail(ptr noundef nonnull @.str.9, ptr noundef nonnull @.str.2, i32 noundef 603, ptr noundef nonnull @__PRETTY_FUNCTION__.qdict_array_entries) #8
  unreachable

for.body:                                         ; preds = %for.body.preheader, %if.end24
  %i.030 = phi i32 [ %inc, %if.end24 ], [ 0, %for.body.preheader ]
  %entries.029 = phi i32 [ %add, %if.end24 ], [ 0, %for.body.preheader ]
  %call5 = tail call noalias ptr (ptr, ...) @g_strdup_printf(ptr noundef nonnull @.str.10, ptr noundef nonnull %subqdict, i32 noundef %i.030) #7
  %call.i = tail call ptr @qdict_first(ptr noundef %src) #7
  %tobool.not6.i = icmp eq ptr %call.i, null
  br i1 %tobool.not6.i, label %qdict_count_prefixed_entries.exit, label %for.body.i

for.body.i:                                       ; preds = %for.body, %for.inc.i
  %count.08.i = phi i32 [ %count.1.i, %for.inc.i ], [ 0, %for.body ]
  %entry1.07.i = phi ptr [ %call6.i, %for.inc.i ], [ %call.i, %for.body ]
  %2 = load ptr, ptr %entry1.07.i, align 8
  %call2.i = tail call i32 @strstart(ptr noundef %2, ptr noundef %call5, ptr noundef null) #7
  %tobool3.not.i = icmp eq i32 %call2.i, 0
  br i1 %tobool3.not.i, label %for.inc.i, label %if.then.i

if.then.i:                                        ; preds = %for.body.i
  %cmp.i = icmp eq i32 %count.08.i, 2147483647
  br i1 %cmp.i, label %qdict_count_prefixed_entries.exit, label %if.end.i

if.end.i:                                         ; preds = %if.then.i
  %inc.i = add nsw i32 %count.08.i, 1
  br label %for.inc.i

for.inc.i:                                        ; preds = %if.end.i, %for.body.i
  %count.1.i = phi i32 [ %inc.i, %if.end.i ], [ %count.08.i, %for.body.i ]
  %call6.i = tail call ptr @qdict_next(ptr noundef %src, ptr noundef nonnull %entry1.07.i) #7
  %tobool.not.i = icmp eq ptr %call6.i, null
  br i1 %tobool.not.i, label %qdict_count_prefixed_entries.exit, label %for.body.i, !llvm.loop !8

qdict_count_prefixed_entries.exit:                ; preds = %if.then.i, %for.inc.i, %for.body
  %retval.0.i = phi i32 [ 0, %for.body ], [ -34, %if.then.i ], [ %count.1.i, %for.inc.i ]
  %call7 = tail call i64 @strlen(ptr noundef nonnull dereferenceable(1) %call5) #9
  %3 = getelementptr i8, ptr %call5, i64 %call7
  %arrayidx9 = getelementptr i8, ptr %3, i64 -1
  store i8 0, ptr %arrayidx9, align 1
  %call10 = tail call ptr @qdict_get(ptr noundef %src, ptr noundef nonnull %call5) #7
  tail call void @g_free(ptr noundef nonnull %call5) #7
  %cmp11 = icmp slt i32 %retval.0.i, 0
  br i1 %cmp11, label %return, label %if.end14

if.end14:                                         ; preds = %qdict_count_prefixed_entries.exit
  %tobool15 = icmp ne ptr %call10, null
  %tobool16 = icmp ne i32 %retval.0.i, 0
  %or.cond = select i1 %tobool15, i1 %tobool16, i1 false
  br i1 %or.cond, label %return, label %if.else18

if.else18:                                        ; preds = %if.end14
  %or.cond1 = select i1 %tobool15, i1 true, i1 %tobool16
  br i1 %or.cond1, label %if.end24, label %for.end

if.end24:                                         ; preds = %if.else18
  %cond = select i1 %tobool16, i32 %retval.0.i, i32 1
  %add = add i32 %cond, %entries.029
  %inc = add nuw nsw i32 %i.030, 1
  %cmp3.not = icmp eq i32 %inc, 2147483647
  br i1 %cmp3.not, label %for.end, label %for.body, !llvm.loop !16

for.end:                                          ; preds = %if.else18, %if.end24
  %entries.0.lcssa = phi i32 [ %entries.029, %if.else18 ], [ %add, %if.end24 ]
  %i.0.lcssa = phi i32 [ %i.030, %if.else18 ], [ 2147483647, %if.end24 ]
  %call26 = tail call ptr @qdict_first(ptr noundef %src) #7
  %tobool28.not31 = icmp eq ptr %call26, null
  br i1 %tobool28.not31, label %for.end38, label %for.body29

for.body29:                                       ; preds = %for.end, %for.body29
  %entry1.033 = phi ptr [ %call37, %for.body29 ], [ %call26, %for.end ]
  %entries.132 = phi i32 [ %spec.select, %for.body29 ], [ %entries.0.lcssa, %for.end ]
  %call30 = tail call ptr @qdict_entry_key(ptr noundef nonnull %entry1.033) #7
  %call31 = tail call i32 @strstart(ptr noundef %call30, ptr noundef nonnull %subqdict, ptr noundef null) #7
  %tobool32.not = icmp eq i32 %call31, 0
  %inc34 = zext i1 %tobool32.not to i32
  %spec.select = add i32 %entries.132, %inc34
  %call37 = tail call ptr @qdict_next(ptr noundef %src, ptr noundef nonnull %entry1.033) #7
  %tobool28.not = icmp eq ptr %call37, null
  br i1 %tobool28.not, label %for.end38, label %for.body29, !llvm.loop !17

for.end38:                                        ; preds = %for.body29, %for.end
  %entries.1.lcssa = phi i32 [ %entries.0.lcssa, %for.end ], [ %spec.select, %for.body29 ]
  %call39 = tail call i64 @qdict_size(ptr noundef %src) #7
  %conv40 = zext i32 %entries.1.lcssa to i64
  %cmp41.not = icmp eq i64 %call39, %conv40
  %i.0. = select i1 %cmp41.not, i32 %i.0.lcssa, i32 -22
  br label %return

return:                                           ; preds = %if.end14, %qdict_count_prefixed_entries.exit, %for.end38
  %retval.0 = phi i32 [ %i.0., %for.end38 ], [ -22, %if.end14 ], [ %retval.0.i, %qdict_count_prefixed_entries.exit ]
  ret i32 %retval.0
}